target datalayout = "e-m:e-p270:32:32-p271:32:32-p272:64:64-i64:64-i128:128-f80:128-n8:16:32:64-S128"
target triple = "x86_64-unknown-linux-gnu"

%"class.icu_75::RuleBasedCollator" = type <{ %"class.icu_75::Collator", ptr, ptr, ptr, ptr, %"class.icu_75::Locale", i32, i8, [3 x i8] }>
%"class.icu_75::Collator" = type { %"class.icu_75::UObject" }
%"class.icu_75::UObject" = type { ptr }
%"class.icu_75::Locale" = type <{ %"class.icu_75::UObject", [12 x i8], [6 x i8], [4 x i8], [2 x i8], i32, [4 x i8], ptr, [157 x i8], [3 x i8], ptr, i8, [7 x i8] }>
%"class.icu_75::SharedObject" = type { %"class.icu_75::UObject", i32, %"struct.std::atomic", ptr }
%"struct.std::atomic" = type { %"struct.std::__atomic_base" }
%"struct.std::__atomic_base" = type { i32 }
%"struct.icu_75::CollationSettings" = type <{ %"class.icu_75::SharedObject", i32, i32, ptr, i32, [4 x i8], ptr, i32, [4 x i8], ptr, i32, i32, i32, [384 x i16], [4 x i8] }>

; Function Attrs: mustprogress nounwind uwtable
define linkonce_odr noundef i32 @_ZNK6icu_7517CollationSettings14getMaxVariableEv(ptr noundef nonnull align 8 dereferenceable(852) %this) #0 comdat align 2 {
entry:
  %this.addr = alloca ptr, align 8
  store ptr %this, ptr %this.addr, align 8
  %this1 = load ptr, ptr %this.addr, align 8
  %options = getelementptr inbounds %"struct.icu_75::CollationSettings", ptr %this1, i32 0, i32 1
  %0 = load i32, ptr %options, align 8
  %and = and i32 %0, 112
  %shr = ashr i32 %and, 4
  ret i32 %shr
}

; Function Attrs: mustprogress uwtable
define noundef i32 @_ZNK6icu_7517RuleBasedCollator14getMaxVariableEv(ptr noundef nonnull align 8 dereferenceable(272) %this) unnamed_addr #1 align 2 {
entry:
  %this.addr = alloca ptr, align 8
  store ptr %this, ptr %this.addr, align 8
  %this1 = load ptr, ptr %this.addr, align 8
  %settings = getelementptr inbounds %"class.icu_75::RuleBasedCollator", ptr %this1, i32 0, i32 2
  %0 = load ptr, ptr %settings, align 8
  %call = call noundef i32 @_ZNK6icu_7517CollationSettings14getMaxVariableEv(ptr noundef nonnull align 8 dereferenceable(852) %0)
  %add = add nsw i32 4096, %call
  ret i32 %add
}