; Function Attrs: mustprogress nofree norecurse nosync nounwind willreturn memory(read, inaccessiblemem: none) uwtable
define noundef i32 @_ZNK6icu_7517RuleBasedCollator14getMaxVariableEv(ptr nocapture noundef nonnull readonly align 8 dereferenceable(272) %this) unnamed_addr #10 align 2 {
entry:
  %settings = getelementptr inbounds i8, ptr %this, i64 16
  %0 = load ptr, ptr %settings, align 8
  %options.i = getelementptr inbounds i8, ptr %0, i64 24
  %1 = load i32, ptr %options.i, align 8
  %and.i = lshr i32 %1, 4
  %shr.i = and i32 %and.i, 7
  %add = or disjoint i32 %shr.i, 4096
  ret i32 %add
}